target datalayout = "e-m:e-p270:32:32-p271:32:32-p272:64:64-i64:64-i128:128-f80:128-n8:16:32:64-S128"
target triple = "x86_64-pc-linux-gnu"

; Function Attrs: alwaysinline nounwind uwtable
define internal void @ayuv64le_UV_c(ptr noundef %0, ptr noundef %1, ptr noundef %2, i32 noundef %3, i32 noundef %4, i32 noundef %5) #3 {
  %7 = alloca ptr, align 8
  %8 = alloca ptr, align 8
  %9 = alloca ptr, align 8
  %10 = alloca i32, align 4
  %11 = alloca i32, align 4
  %12 = alloca i32, align 4
  %13 = alloca i32, align 4
  store ptr %0, ptr %7, align 8, !tbaa !34
  store ptr %1, ptr %8, align 8, !tbaa !34
  store ptr %2, ptr %9, align 8, !tbaa !34
  store i32 %3, ptr %10, align 4, !tbaa !30
  store i32 %4, ptr %11, align 4, !tbaa !30
  store i32 %5, ptr %12, align 4, !tbaa !30
  call void @llvm.lifetime.start.p0(i64 4, ptr %13) #9
  store i32 0, ptr %13, align 4, !tbaa !30
  br label %14

14:                                               ; preds = %47, %6
  %15 = load i32, ptr %13, align 4, !tbaa !30
  %16 = load i32, ptr %10, align 4, !tbaa !30
  %17 = icmp slt i32 %15, %16
  br i1 %17, label %18, label %50

18:                                               ; preds = %14
  %19 = load ptr, ptr %9, align 8, !tbaa !34
  %20 = load i32, ptr %13, align 4, !tbaa !30
  %21 = mul nsw i32 %20, 8
  %22 = sext i32 %21 to i64
  %23 = getelementptr inbounds i8, ptr %19, i64 %22
  %24 = load i32, ptr %11, align 4, !tbaa !30
  %25 = sext i32 %24 to i64
  %26 = getelementptr inbounds i8, ptr %23, i64 %25
  %27 = load i16, ptr %26, align 1, !tbaa !36
  %28 = load ptr, ptr %7, align 8, !tbaa !34
  %29 = load i32, ptr %13, align 4, !tbaa !30
  %30 = mul nsw i32 %29, 2
  %31 = sext i32 %30 to i64
  %32 = getelementptr inbounds i8, ptr %28, i64 %31
  store i16 %27, ptr %32, align 1, !tbaa !36
  %33 = load ptr, ptr %9, align 8, !tbaa !34
  %34 = load i32, ptr %13, align 4, !tbaa !30
  %35 = mul nsw i32 %34, 8
  %36 = sext i32 %35 to i64
  %37 = getelementptr inbounds i8, ptr %33, i64 %36
  %38 = load i32, ptr %12, align 4, !tbaa !30
  %39 = sext i32 %38 to i64
  %40 = getelementptr inbounds i8, ptr %37, i64 %39
  %41 = load i16, ptr %40, align 1, !tbaa !36
  %42 = load ptr, ptr %8, align 8, !tbaa !34
  %43 = load i32, ptr %13, align 4, !tbaa !30
  %44 = mul nsw i32 %43, 2
  %45 = sext i32 %44 to i64
  %46 = getelementptr inbounds i8, ptr %42, i64 %45
  store i16 %41, ptr %46, align 1, !tbaa !36
  br label %47

47:                                               ; preds = %18
  %48 = load i32, ptr %13, align 4, !tbaa !30
  %49 = add nsw i32 %48, 1
  store i32 %49, ptr %13, align 4, !tbaa !30
  br label %14, !llvm.loop !139

50:                                               ; preds = %14
  call void @llvm.lifetime.end.p0(i64 4, ptr %13) #9
  ret void
}

; Function Attrs: nounwind uwtable
define internal void @read_xv48le_UV_c(ptr noundef %0, ptr noundef %1, ptr noundef %2, ptr noundef %3, ptr noundef %4, i32 noundef %5, ptr noundef %6, ptr noundef %7) #2 {
  %9 = alloca ptr, align 8
  %10 = alloca ptr, align 8
  %11 = alloca ptr, align 8
  %12 = alloca ptr, align 8
  %13 = alloca ptr, align 8
  %14 = alloca i32, align 4
  %15 = alloca ptr, align 8
  %16 = alloca ptr, align 8
  store ptr %0, ptr %9, align 8, !tbaa !34
  store ptr %1, ptr %10, align 8, !tbaa !34
  store ptr %2, ptr %11, align 8, !tbaa !34
  store ptr %3, ptr %12, align 8, !tbaa !34
  store ptr %4, ptr %13, align 8, !tbaa !34
  store i32 %5, ptr %14, align 4, !tbaa !30
  store ptr %6, ptr %15, align 8, !tbaa !35
  store ptr %7, ptr %16, align 8, !tbaa !31
  %17 = load ptr, ptr %9, align 8, !tbaa !34
  %18 = load ptr, ptr %10, align 8, !tbaa !34
  %19 = load ptr, ptr %12, align 8, !tbaa !34
  %20 = load i32, ptr %14, align 4, !tbaa !30
  call void @ayuv64le_UV_c(ptr noundef %17, ptr noundef %18, ptr noundef %19, i32 noundef %20, i32 noundef 0, i32 noundef 4)
  ret void
}